; Function Attrs: mustprogress nofree norecurse nosync nounwind willreturn memory(argmem: read) uwtable
define hidden noundef i64 @_ZNK8CodeHeap25heap_unallocated_capacityEv(ptr nocapture noundef nonnull readonly align 8 dereferenceable(336) %0) local_unnamed_addr #9 align 2 {
  %2 = getelementptr inbounds i8, ptr %0, i64 232
  %3 = load i64, ptr %2, align 8
  %4 = getelementptr inbounds i8, ptr %0, i64 256
  %5 = load i64, ptr %4, align 8
  %6 = sub i64 %3, %5
  %7 = getelementptr inbounds i8, ptr %0, i64 248
  %8 = load i32, ptr %7, align 8
  %9 = zext nneg i32 %8 to i64
  %10 = shl i64 %6, %9
  ret i64 %10
}